; Function Attrs: nounwind uwtable
define noalias noundef ptr @H5FL_seq_free(ptr noundef captures(none) %0, ptr noundef %1) local_unnamed_addr #0 {
  %3 = load i8, ptr @H5FL_init_g, align 1, !tbaa !3, !range !7, !noundef !8
  %4 = trunc nuw i8 %3 to i1
  %5 = load i8, ptr @H5_libterm_g, align 1, !range !7
  %6 = trunc nuw i8 %5 to i1
  %7 = xor i1 %6, true
  %8 = select i1 %4, i1 true, i1 %7
  br i1 %8, label %9, label %11, !prof !15

9:                                                ; preds = %2
  %10 = tail call ptr @H5FL_blk_free(ptr noundef %0, ptr noundef %1)
  br label %11

11:                                               ; preds = %9, %2
  ret ptr null
}